target datalayout = "e-m:e-p270:32:32-p271:32:32-p272:64:64-i64:64-i128:128-f80:128-n8:16:32:64-S128"
target triple = "x86_64-unknown-linux-gnu"

; Function Attrs: nounwind sspstrong uwtable
define internal zeroext i1 @virtio_blk_sect_range_ok(ptr noundef %blk, i32 noundef %block_size, i64 noundef %sector, i64 noundef %size) #0 {
entry:
  %retval = alloca i1, align 1
  %blk.addr = alloca ptr, align 8
  %block_size.addr = alloca i32, align 4
  %sector.addr = alloca i64, align 8
  %size.addr = alloca i64, align 8
  %nb_sectors = alloca i64, align 8
  %total_sectors = alloca i64, align 8
  store ptr %blk, ptr %blk.addr, align 8
  store i32 %block_size, ptr %block_size.addr, align 4
  store i64 %sector, ptr %sector.addr, align 8
  store i64 %size, ptr %size.addr, align 8
  %0 = load i64, ptr %size.addr, align 8
  %rem = urem i64 %0, 512
  %tobool = icmp ne i64 %rem, 0
  br i1 %tobool, label %if.then, label %if.end

if.then:                                          ; preds = %entry
  store i1 false, ptr %retval, align 1
  br label %return

if.end:                                           ; preds = %entry
  %1 = load i64, ptr %size.addr, align 8
  %shr = lshr i64 %1, 9
  store i64 %shr, ptr %nb_sectors, align 8
  %2 = load i64, ptr %nb_sectors, align 8
  %cmp = icmp ugt i64 %2, 4194303
  br i1 %cmp, label %if.then1, label %if.end2

if.then1:                                         ; preds = %if.end
  store i1 false, ptr %retval, align 1
  br label %return

if.end2:                                          ; preds = %if.end
  %3 = load i64, ptr %sector.addr, align 8
  %shl = shl i64 %3, 9
  %4 = load i32, ptr %block_size.addr, align 4
  %conv = zext i32 %4 to i64
  %rem3 = urem i64 %shl, %conv
  %tobool4 = icmp ne i64 %rem3, 0
  br i1 %tobool4, label %if.then5, label %if.end6

if.then5:                                         ; preds = %if.end2
  store i1 false, ptr %retval, align 1
  br label %return

if.end6:                                          ; preds = %if.end2
  %5 = load ptr, ptr %blk.addr, align 8
  call void @blk_co_get_geometry(ptr noundef %5, ptr noundef %total_sectors)
  %6 = load i64, ptr %sector.addr, align 8
  %7 = load i64, ptr %total_sectors, align 8
  %cmp7 = icmp ugt i64 %6, %7
  br i1 %cmp7, label %if.then11, label %lor.lhs.false

lor.lhs.false:                                    ; preds = %if.end6
  %8 = load i64, ptr %nb_sectors, align 8
  %9 = load i64, ptr %total_sectors, align 8
  %10 = load i64, ptr %sector.addr, align 8
  %sub = sub i64 %9, %10
  %cmp9 = icmp ugt i64 %8, %sub
  br i1 %cmp9, label %if.then11, label %if.end12

if.then11:                                        ; preds = %lor.lhs.false, %if.end6
  store i1 false, ptr %retval, align 1
  br label %return

if.end12:                                         ; preds = %lor.lhs.false
  store i1 true, ptr %retval, align 1
  br label %return

return:                                           ; preds = %if.end12, %if.then11, %if.then5, %if.then1, %if.then
  %11 = load i1, ptr %retval, align 1
  ret i1 %11
}