; Function Attrs: nounwind sspstrong uwtable
define internal zeroext i1 @virtio_blk_sect_range_ok(ptr noundef %blk, i32 noundef %block_size, i64 noundef %sector, i64 noundef %size) #0 {
entry:
  %total_sectors = alloca i64, align 8
  %rem = and i64 %size, 511
  %tobool.not = icmp eq i64 %rem, 0
  br i1 %tobool.not, label %if.end, label %return

if.end:                                           ; preds = %entry
  %shr = lshr exact i64 %size, 9
  %cmp = icmp ugt i64 %size, 2147483136
  br i1 %cmp, label %return, label %if.end2

if.end2:                                          ; preds = %if.end
  %shl = shl i64 %sector, 9
  %conv = zext i32 %block_size to i64
  %rem3 = urem i64 %shl, %conv
  %tobool4.not = icmp eq i64 %rem3, 0
  br i1 %tobool4.not, label %if.end6, label %return

if.end6:                                          ; preds = %if.end2
  call void @blk_co_get_geometry(ptr noundef %blk, ptr noundef nonnull %total_sectors) #6
  %0 = load i64, ptr %total_sectors, align 8
  %cmp7 = icmp ule i64 %sector, %0
  %sub = sub nuw i64 %0, %sector
  %cmp9 = icmp ule i64 %shr, %sub
  %or.cond.not = select i1 %cmp7, i1 %cmp9, i1 false
  br label %return

return:                                           ; preds = %if.end6, %if.end2, %if.end, %entry
  %retval.0 = phi i1 [ false, %entry ], [ false, %if.end ], [ false, %if.end2 ], [ %or.cond.not, %if.end6 ]
  ret i1 %retval.0
}